target datalayout = "e-m:e-p270:32:32-p271:32:32-p272:64:64-i64:64-i128:128-f80:128-n8:16:32:64-S128"
target triple = "x86_64-pc-linux-gnu"

@.str = private unnamed_addr constant [118 x i8] c"generated/home/dtcxzyw/WorkSpace/Projects/compilers/llvm-opt-benchmark/bench/libquic/libquic/boringssl/crypto/bn/bn.c\00", align 1

; Function Attrs: nounwind uwtable
define hidden ptr @bn_expand(ptr noundef %0, i64 noundef %1) #0 {
  %3 = alloca ptr, align 8
  %4 = alloca ptr, align 8
  %5 = alloca i64, align 8
  store ptr %0, ptr %4, align 8, !tbaa !6
  store i64 %1, ptr %5, align 8, !tbaa !20
  %6 = load i64, ptr %5, align 8, !tbaa !20
  %7 = add i64 %6, 64
  %8 = sub i64 %7, 1
  %9 = load i64, ptr %5, align 8, !tbaa !20
  %10 = icmp ult i64 %8, %9
  br i1 %10, label %11, label %12

11:                                               ; preds = %2
  call void @ERR_put_error(i32 noundef 3, i32 noundef 0, i32 noundef 102, ptr noundef @.str, i32 noundef 327)
  store ptr null, ptr %3, align 8
  br label %19

12:                                               ; preds = %2
  %13 = load ptr, ptr %4, align 8, !tbaa !6
  %14 = load i64, ptr %5, align 8, !tbaa !20
  %15 = add i64 %14, 64
  %16 = sub i64 %15, 1
  %17 = udiv i64 %16, 64
  %18 = call ptr @bn_wexpand(ptr noundef %13, i64 noundef %17)
  store ptr %18, ptr %3, align 8
  br label %19

19:                                               ; preds = %12, %11
  %20 = load ptr, ptr %3, align 8
  ret ptr %20
}