; Function Attrs: nounwind uwtable
define hidden noundef ptr @bn_expand(ptr noundef captures(ret: address, provenance) %0, i64 noundef %1) local_unnamed_addr #0 {
  %3 = icmp ugt i64 %1, -64
  br i1 %3, label %4, label %5

4:                                                ; preds = %2
  tail call void @ERR_put_error(i32 noundef 3, i32 noundef 0, i32 noundef 102, ptr noundef nonnull @.str, i32 noundef 327) #14
  br label %9

5:                                                ; preds = %2
  %6 = add nuw i64 %1, 63
  %7 = lshr i64 %6, 6
  %8 = tail call ptr @bn_wexpand(ptr noundef %0, i64 noundef %7)
  br label %9

9:                                                ; preds = %5, %4
  %.0 = phi ptr [ null, %4 ], [ %8, %5 ]
  ret ptr %.0
}